target datalayout = "e-m:e-p270:32:32-p271:32:32-p272:64:64-i64:64-i128:128-f80:128-n8:16:32:64-S128"
target triple = "x86_64-pc-linux-gnu"

%struct.mi_commit_mask_s = type { [16 x i64] }
%struct.mi_page_s = type { i32, i32, i8, i16, i16, %union.mi_page_flags_s, i8, ptr, i32, i32, ptr, i64, i64, ptr, ptr, [1 x i64] }
%union.mi_page_flags_s = type { i8 }
%struct.mi_segment_s = type { i64, i8, i8, i8, i8, i64, %struct.mi_commit_mask_s, %struct.mi_commit_mask_s, ptr, ptr, i64, i64, i64, i64, i64, i64, i32, i64, i64, [1024 x %struct.mi_page_s] }

; Function Attrs: nounwind uwtable
define internal ptr @_mi_segment_page_start_from_slice(ptr noundef %0, ptr noundef %1, i64 noundef %2, ptr noundef %3) #0 {
  %5 = alloca ptr, align 8
  %6 = alloca ptr, align 8
  %7 = alloca i64, align 8
  %8 = alloca ptr, align 8
  %9 = alloca i64, align 8
  %10 = alloca i64, align 8
  %11 = alloca i64, align 8
  store ptr %0, ptr %5, align 8, !tbaa !19
  store ptr %1, ptr %6, align 8, !tbaa !21
  store i64 %2, ptr %7, align 8, !tbaa !8
  store ptr %3, ptr %8, align 8, !tbaa !13
  call void @llvm.lifetime.start.p0(i64 8, ptr %9) #7
  %12 = load ptr, ptr %6, align 8, !tbaa !21
  %13 = load ptr, ptr %5, align 8, !tbaa !19
  %14 = getelementptr inbounds nuw %struct.mi_segment_s, ptr %13, i32 0, i32 19
  %15 = getelementptr inbounds [1024 x %struct.mi_page_s], ptr %14, i64 0, i64 0
  %16 = ptrtoint ptr %12 to i64
  %17 = ptrtoint ptr %15 to i64
  %18 = sub i64 %16, %17
  %19 = sdiv exact i64 %18, 80
  store i64 %19, ptr %9, align 8, !tbaa !8
  call void @llvm.lifetime.start.p0(i64 8, ptr %10) #7
  %20 = load ptr, ptr %6, align 8, !tbaa !21
  %21 = getelementptr inbounds nuw %struct.mi_page_s, ptr %20, i32 0, i32 0
  %22 = load i32, ptr %21, align 8, !tbaa !30
  %23 = zext i32 %22 to i64
  %24 = mul i64 %23, 65536
  store i64 %24, ptr %10, align 8, !tbaa !8
  call void @llvm.lifetime.start.p0(i64 8, ptr %11) #7
  %25 = load i64, ptr %7, align 8, !tbaa !8
  %26 = icmp uge i64 %25, 8
  br i1 %26, label %27, label %30

27:                                               ; preds = %4
  %28 = load i64, ptr %7, align 8, !tbaa !8
  %29 = icmp ule i64 %28, 1024
  br label %30

30:                                               ; preds = %27, %4
  %31 = phi i1 [ false, %4 ], [ %29, %27 ]
  %32 = select i1 %31, i32 128, i32 0
  %33 = sext i32 %32 to i64
  store i64 %33, ptr %11, align 8, !tbaa !8
  %34 = load ptr, ptr %8, align 8, !tbaa !13
  %35 = icmp ne ptr %34, null
  br i1 %35, label %36, label %41

36:                                               ; preds = %30
  %37 = load i64, ptr %10, align 8, !tbaa !8
  %38 = load i64, ptr %11, align 8, !tbaa !8
  %39 = sub i64 %37, %38
  %40 = load ptr, ptr %8, align 8, !tbaa !13
  store i64 %39, ptr %40, align 8, !tbaa !8
  br label %41

41:                                               ; preds = %36, %30
  %42 = load ptr, ptr %5, align 8, !tbaa !19
  %43 = load i64, ptr %9, align 8, !tbaa !8
  %44 = mul i64 %43, 65536
  %45 = load i64, ptr %11, align 8, !tbaa !8
  %46 = add i64 %44, %45
  %47 = getelementptr inbounds nuw i8, ptr %42, i64 %46
  call void @llvm.lifetime.end.p0(i64 8, ptr %11) #7
  call void @llvm.lifetime.end.p0(i64 8, ptr %10) #7
  call void @llvm.lifetime.end.p0(i64 8, ptr %9) #7
  ret ptr %47
}

; Function Attrs: inlinehint nounwind uwtable
define internal ptr @mi_page_to_slice(ptr noundef %0) #2 {
  %2 = alloca ptr, align 8
  store ptr %0, ptr %2, align 8, !tbaa !21
  %3 = load ptr, ptr %2, align 8, !tbaa !21
  ret ptr %3
}

; Function Attrs: nounwind uwtable
define hidden ptr @_mi_segment_page_start(ptr noundef %0, ptr noundef %1, ptr noundef %2) #0 {
  %4 = alloca ptr, align 8
  %5 = alloca ptr, align 8
  %6 = alloca ptr, align 8
  %7 = alloca ptr, align 8
  %8 = alloca ptr, align 8
  store ptr %0, ptr %4, align 8, !tbaa !19
  store ptr %1, ptr %5, align 8, !tbaa !21
  store ptr %2, ptr %6, align 8, !tbaa !13
  call void @llvm.lifetime.start.p0(i64 8, ptr %7) #7
  %9 = load ptr, ptr %5, align 8, !tbaa !21
  %10 = call ptr @mi_page_to_slice(ptr noundef %9)
  store ptr %10, ptr %7, align 8, !tbaa !21
  call void @llvm.lifetime.start.p0(i64 8, ptr %8) #7
  %11 = load ptr, ptr %4, align 8, !tbaa !19
  %12 = load ptr, ptr %7, align 8, !tbaa !21
  %13 = load ptr, ptr %5, align 8, !tbaa !21
  %14 = getelementptr inbounds nuw %struct.mi_page_s, ptr %13, i32 0, i32 9
  %15 = load i32, ptr %14, align 4, !tbaa !23
  %16 = zext i32 %15 to i64
  %17 = load ptr, ptr %6, align 8, !tbaa !13
  %18 = call ptr @_mi_segment_page_start_from_slice(ptr noundef %11, ptr noundef %12, i64 noundef %16, ptr noundef %17)
  store ptr %18, ptr %8, align 8, !tbaa !28
  %19 = load ptr, ptr %8, align 8, !tbaa !28
  call void @llvm.lifetime.end.p0(i64 8, ptr %8) #7
  call void @llvm.lifetime.end.p0(i64 8, ptr %7) #7
  ret ptr %19
}