; Function Attrs: mustprogress nofree norecurse nosync nounwind willreturn memory(argmem: readwrite) uwtable
define hidden ptr @_mi_segment_page_start(ptr noundef %0, ptr noundef %1, ptr noundef writeonly captures(address_is_null) %2) local_unnamed_addr #3 {
  %4 = getelementptr inbounds nuw i8, ptr %1, i64 28
  %5 = load i32, ptr %4, align 4, !tbaa !14
  %6 = add i32 %5, -8
  %7 = icmp ult i32 %6, 1017
  %8 = select i1 %7, i64 128, i64 0
  %.not.i = icmp eq ptr %2, null
  br i1 %.not.i, label %_mi_segment_page_start_from_slice.exit, label %9

9:                                                ; preds = %3
  %10 = load i32, ptr %1, align 8, !tbaa !21
  %11 = zext i32 %10 to i64
  %12 = shl nuw nsw i64 %11, 16
  %13 = sub nsw i64 %12, %8
  store i64 %13, ptr %2, align 8, !tbaa !3
  br label %_mi_segment_page_start_from_slice.exit

_mi_segment_page_start_from_slice.exit:           ; preds = %3, %9
  %14 = ptrtoint ptr %1 to i64
  %15 = getelementptr inbounds nuw i8, ptr %0, i64 368
  %16 = ptrtoint ptr %15 to i64
  %17 = sub i64 %14, %16
  %18 = sdiv exact i64 %17, 80
  %19 = shl i64 %18, 16
  %20 = or disjoint i64 %8, %19
  %21 = getelementptr inbounds nuw i8, ptr %0, i64 %20
  ret ptr %21
}